target datalayout = "e-m:e-p270:32:32-p271:32:32-p272:64:64-i64:64-i128:128-f80:128-n8:16:32:64-S128"
target triple = "x86_64-pc-linux-gnu"

; Function Attrs: null_pointer_is_valid sspstrong uwtable
define internal zeroext i16 @update_crc10_by_bytes_iuup(ptr noundef %0, i32 noundef %1, i32 noundef %2) #0 {
  %4 = alloca ptr, align 8
  %5 = alloca i32, align 4
  %6 = alloca i32, align 4
  %7 = alloca i16, align 2
  %8 = alloca i16, align 2
  %9 = alloca [2 x i8], align 1
  store ptr %0, ptr %4, align 8
  store i32 %1, ptr %5, align 4
  store i32 %2, ptr %6, align 4
  call void @llvm.lifetime.start.p0(i64 2, ptr %7) #8
  call void @llvm.lifetime.start.p0(i64 2, ptr %8) #8
  call void @llvm.lifetime.start.p0(i64 2, ptr %9) #8
  %10 = load ptr, ptr %4, align 8
  %11 = load i32, ptr %5, align 4
  %12 = add i32 %11, 2
  %13 = load i32, ptr %6, align 4
  %14 = call zeroext i16 @update_crc10_by_bytes_tvb(i16 noundef zeroext 0, ptr noundef %10, i32 noundef %12, i32 noundef %13)
  store i16 %14, ptr %7, align 2
  %15 = load ptr, ptr %4, align 8
  %16 = load i32, ptr %5, align 4
  %17 = call zeroext i16 @tvb_get_ntohs(ptr noundef %15, i32 noundef %16)
  %18 = zext i16 %17 to i32
  %19 = and i32 %18, 1023
  %20 = trunc i32 %19 to i16
  store i16 %20, ptr %8, align 2
  %21 = load i16, ptr %8, align 2
  %22 = zext i16 %21 to i32
  %23 = ashr i32 %22, 2
  %24 = trunc i32 %23 to i8
  %25 = getelementptr [2 x i8], ptr %9, i64 0, i64 0
  store i8 %24, ptr %25, align 1
  %26 = load i16, ptr %8, align 2
  %27 = zext i16 %26 to i32
  %28 = shl i32 %27, 6
  %29 = and i32 %28, 255
  %30 = trunc i32 %29 to i8
  %31 = getelementptr [2 x i8], ptr %9, i64 0, i64 1
  store i8 %30, ptr %31, align 1
  %32 = load i16, ptr %7, align 2
  %33 = getelementptr inbounds [2 x i8], ptr %9, i64 0, i64 0
  %34 = call zeroext i16 @update_crc10_by_bytes(i16 noundef zeroext %32, ptr noundef %33, i32 noundef 2)
  store i16 %34, ptr %7, align 2
  %35 = load i16, ptr %7, align 2
  call void @llvm.lifetime.end.p0(i64 2, ptr %9) #8
  call void @llvm.lifetime.end.p0(i64 2, ptr %8) #8
  call void @llvm.lifetime.end.p0(i64 2, ptr %7) #8
  ret i16 %35
}

; Function Attrs: null_pointer_is_valid sspstrong uwtable
define internal zeroext i1 @dissect_iuup_heur(ptr noundef %0, ptr noundef %1, ptr noundef %2, ptr noundef %3) #0 {
  %5 = alloca i1, align 1
  %6 = alloca ptr, align 8
  %7 = alloca ptr, align 8
  %8 = alloca ptr, align 8
  %9 = alloca ptr, align 8
  %10 = alloca i32, align 4
  %11 = alloca i8, align 1
  %12 = alloca i8, align 1
  %13 = alloca [2 x i8], align 1
  %14 = alloca i16, align 2
  %15 = alloca i32, align 4
  store ptr %0, ptr %6, align 8
  store ptr %1, ptr %7, align 8
  store ptr %2, ptr %8, align 8
  store ptr %3, ptr %9, align 8
  call void @llvm.lifetime.start.p0(i64 4, ptr %10) #8
  %16 = load ptr, ptr %6, align 8
  %17 = call i32 @tvb_captured_length(ptr noundef %16)
  store i32 %17, ptr %10, align 4
  call void @llvm.lifetime.start.p0(i64 1, ptr %11) #8
  %18 = load ptr, ptr %6, align 8
  %19 = call zeroext i8 @tvb_get_uint8(ptr noundef %18, i32 noundef 0)
  store i8 %19, ptr %11, align 1
  call void @llvm.lifetime.start.p0(i64 1, ptr %12) #8
  %20 = load ptr, ptr %6, align 8
  %21 = call zeroext i8 @tvb_get_uint8(ptr noundef %20, i32 noundef 1)
  store i8 %21, ptr %12, align 1
  call void @llvm.lifetime.start.p0(i64 2, ptr %13) #8
  %22 = load i8, ptr %11, align 1
  store i8 %22, ptr %13, align 1
  %23 = getelementptr inbounds i8, ptr %13, i64 1
  %24 = load i8, ptr %12, align 1
  store i8 %24, ptr %23, align 1
  call void @llvm.lifetime.start.p0(i64 2, ptr %14) #8
  %25 = load ptr, ptr %6, align 8
  %26 = call zeroext i8 @tvb_get_uint8(ptr noundef %25, i32 noundef 2)
  %27 = zext i8 %26 to i32
  %28 = ashr i32 %27, 2
  %29 = trunc i32 %28 to i16
  store i16 %29, ptr %14, align 2
  %30 = load i16, ptr %14, align 2
  %31 = getelementptr inbounds [2 x i8], ptr %13, i64 0, i64 0
  %32 = load i8, ptr %12, align 1
  %33 = zext i8 %32 to i32
  %34 = call zeroext i16 @crc6_0X6F(i16 noundef zeroext %30, ptr noundef %31, i32 noundef %33)
  %35 = icmp ne i16 %34, 0
  br i1 %35, label %36, label %37

36:                                               ; preds = %4
  store i1 false, ptr %5, align 1
  store i32 1, ptr %15, align 4
  br label %76

37:                                               ; preds = %4
  %38 = load i8, ptr %11, align 1
  %39 = zext i8 %38 to i32
  %40 = and i32 %39, 240
  switch i32 %40, label %69 [
    i32 0, label %41
    i32 16, label %53
    i32 224, label %58
  ]

41:                                               ; preds = %37
  %42 = load i32, ptr %10, align 4
  %43 = icmp slt i32 %42, 7
  br i1 %43, label %44, label %45

44:                                               ; preds = %41
  store i1 false, ptr %5, align 1
  store i32 1, ptr %15, align 4
  br label %76

45:                                               ; preds = %41
  %46 = load ptr, ptr %6, align 8
  %47 = load i32, ptr %10, align 4
  %48 = sub i32 %47, 4
  %49 = call zeroext i16 @update_crc10_by_bytes_iuup(ptr noundef %46, i32 noundef 4, i32 noundef %48)
  %50 = icmp ne i16 %49, 0
  br i1 %50, label %51, label %52

51:                                               ; preds = %45
  store i1 false, ptr %5, align 1
  store i32 1, ptr %15, align 4
  br label %76

52:                                               ; preds = %45
  br label %70

53:                                               ; preds = %37
  %54 = load i32, ptr %10, align 4
  %55 = icmp slt i32 %54, 5
  br i1 %55, label %56, label %57

56:                                               ; preds = %53
  store i1 false, ptr %5, align 1
  store i32 1, ptr %15, align 4
  br label %76

57:                                               ; preds = %53
  br label %70

58:                                               ; preds = %37
  %59 = load i32, ptr %10, align 4
  %60 = icmp slt i32 %59, 5
  br i1 %60, label %61, label %62

61:                                               ; preds = %58
  store i1 false, ptr %5, align 1
  store i32 1, ptr %15, align 4
  br label %76

62:                                               ; preds = %58
  %63 = load i8, ptr %12, align 1
  %64 = zext i8 %63 to i32
  %65 = and i32 %64, 15
  %66 = icmp sgt i32 %65, 3
  br i1 %66, label %67, label %68

67:                                               ; preds = %62
  store i1 false, ptr %5, align 1
  store i32 1, ptr %15, align 4
  br label %76

68:                                               ; preds = %62
  br label %70

69:                                               ; preds = %37
  store i1 false, ptr %5, align 1
  store i32 1, ptr %15, align 4
  br label %76

70:                                               ; preds = %68, %57, %52
  %71 = load ptr, ptr %6, align 8
  %72 = load ptr, ptr %7, align 8
  %73 = load ptr, ptr %8, align 8
  %74 = load ptr, ptr %9, align 8
  %75 = call i32 @dissect_iuup(ptr noundef %71, ptr noundef %72, ptr noundef %73, ptr noundef %74)
  store i1 true, ptr %5, align 1
  store i32 1, ptr %15, align 4
  br label %76

76:                                               ; preds = %70, %69, %67, %61, %56, %51, %44, %36
  call void @llvm.lifetime.end.p0(i64 2, ptr %14) #8
  call void @llvm.lifetime.end.p0(i64 2, ptr %13) #8
  call void @llvm.lifetime.end.p0(i64 1, ptr %12) #8
  call void @llvm.lifetime.end.p0(i64 1, ptr %11) #8
  call void @llvm.lifetime.end.p0(i64 4, ptr %10) #8
  %77 = load i1, ptr %5, align 1
  ret i1 %77
}

; Function Attrs: null_pointer_is_valid sspstrong uwtable
define internal i32 @find_iuup(ptr noundef %0, ptr noundef %1, ptr noundef %2, ptr noundef %3) #0 {
  %5 = alloca i32, align 4
  %6 = alloca ptr, align 8
  %7 = alloca ptr, align 8
  %8 = alloca ptr, align 8
  %9 = alloca ptr, align 8
  %10 = alloca i32, align 4
  %11 = alloca i32, align 4
  %12 = alloca i32, align 4
  store ptr %0, ptr %6, align 8
  store ptr %1, ptr %7, align 8
  store ptr %2, ptr %8, align 8
  store ptr %3, ptr %9, align 8
  call void @llvm.lifetime.start.p0(i64 4, ptr %10) #8
  %13 = load ptr, ptr %6, align 8
  %14 = call i32 @tvb_captured_length(ptr noundef %13)
  store i32 %14, ptr %10, align 4
  call void @llvm.lifetime.start.p0(i64 4, ptr %11) #8
  store i32 0, ptr %11, align 4
  br label %15

15:                                               ; preds = %29, %4
  %16 = load i32, ptr %10, align 4
  %17 = icmp sgt i32 %16, 3
  br i1 %17, label %18, label %34

18:                                               ; preds = %15
  %19 = load ptr, ptr %6, align 8
  %20 = load i32, ptr %11, align 4
  %21 = call ptr @tvb_new_subset_remaining(ptr noundef %19, i32 noundef %20)
  %22 = load ptr, ptr %7, align 8
  %23 = load ptr, ptr %8, align 8
  %24 = load ptr, ptr %9, align 8
  %25 = call zeroext i1 @dissect_iuup_heur(ptr noundef %21, ptr noundef %22, ptr noundef %23, ptr noundef %24)
  br i1 %25, label %26, label %29

26:                                               ; preds = %18
  %27 = load ptr, ptr %6, align 8
  %28 = call i32 @tvb_captured_length(ptr noundef %27)
  store i32 %28, ptr %5, align 4
  store i32 1, ptr %12, align 4
  br label %41

29:                                               ; preds = %18
  %30 = load i32, ptr %11, align 4
  %31 = add i32 %30, 1
  store i32 %31, ptr %11, align 4
  %32 = load i32, ptr %10, align 4
  %33 = add i32 %32, -1
  store i32 %33, ptr %10, align 4
  br label %15, !llvm.loop !8

34:                                               ; preds = %15
  %35 = load ptr, ptr %6, align 8
  %36 = load ptr, ptr %7, align 8
  %37 = load ptr, ptr %8, align 8
  %38 = call i32 @call_data_dissector(ptr noundef %35, ptr noundef %36, ptr noundef %37)
  %39 = load ptr, ptr %6, align 8
  %40 = call i32 @tvb_captured_length(ptr noundef %39)
  store i32 %40, ptr %5, align 4
  store i32 1, ptr %12, align 4
  br label %41

41:                                               ; preds = %34, %26
  call void @llvm.lifetime.end.p0(i64 4, ptr %11) #8
  call void @llvm.lifetime.end.p0(i64 4, ptr %10) #8
  %42 = load i32, ptr %5, align 4
  ret i32 %42
}