; Function Attrs: null_pointer_is_valid sspstrong uwtable
define internal i32 @find_iuup(ptr noundef %0, ptr noundef %1, ptr noundef %2, ptr noundef captures(address_is_null) %3) #0 {
  %5 = alloca [2 x i8], align 1
  %6 = alloca [2 x i8], align 1
  %7 = tail call i32 @tvb_captured_length(ptr noundef %0)
  %8 = icmp sgt i32 %7, 3
  br i1 %8, label %.lr.ph, label %._crit_edge

.lr.ph:                                           ; preds = %4
  %9 = getelementptr inbounds nuw i8, ptr %6, i64 1
  %10 = getelementptr inbounds nuw i8, ptr %5, i64 1
  %11 = add nsw i32 %7, -4
  br label %12

12:                                               ; preds = %.lr.ph, %41
  %.018 = phi i32 [ 0, %.lr.ph ], [ %42, %41 ]
  %13 = call ptr @tvb_new_subset_remaining(ptr noundef %0, i32 noundef %.018)
  %14 = call i32 @tvb_captured_length(ptr noundef %13)
  %15 = call zeroext i8 @tvb_get_uint8(ptr noundef %13, i32 noundef 0)
  %16 = call zeroext i8 @tvb_get_uint8(ptr noundef %13, i32 noundef 1)
  call void @llvm.lifetime.start.p0(i64 2, ptr nonnull %6) #9
  store i8 %15, ptr %6, align 1
  store i8 %16, ptr %9, align 1
  %17 = call zeroext i8 @tvb_get_uint8(ptr noundef %13, i32 noundef 2)
  %18 = lshr i8 %17, 2
  %19 = zext nneg i8 %18 to i16
  %20 = zext i8 %16 to i32
  %21 = call zeroext i16 @crc6_0X6F(i16 noundef zeroext %19, ptr noundef nonnull %6, i32 noundef %20)
  %.not.i = icmp eq i16 %21, 0
  br i1 %.not.i, label %22, label %41

22:                                               ; preds = %12
  %23 = and i8 %15, -16
  switch i8 %23, label %41 [
    i8 0, label %24
    i8 16, label %34
    i8 -32, label %36
  ]

24:                                               ; preds = %22
  %25 = icmp slt i32 %14, 7
  br i1 %25, label %41, label %26

26:                                               ; preds = %24
  %27 = add nsw i32 %14, -4
  call void @llvm.lifetime.start.p0(i64 2, ptr nonnull %5) #9
  %28 = call zeroext i16 @update_crc10_by_bytes_tvb(i16 noundef zeroext 0, ptr noundef %13, i32 noundef 6, i32 noundef %27)
  %29 = call zeroext i16 @tvb_get_ntohs(ptr noundef %13, i32 noundef 4)
  %30 = lshr i16 %29, 2
  %31 = trunc i16 %30 to i8
  store i8 %31, ptr %5, align 1
  %.tr.i.i = trunc i16 %29 to i8
  %32 = shl i8 %.tr.i.i, 6
  store i8 %32, ptr %10, align 1
  %33 = call zeroext i16 @update_crc10_by_bytes(i16 noundef zeroext %28, ptr noundef nonnull %5, i32 noundef 2)
  call void @llvm.lifetime.end.p0(i64 2, ptr nonnull %5) #9
  %.not21.i = icmp eq i16 %33, 0
  br i1 %.not21.i, label %39, label %41

34:                                               ; preds = %22
  %35 = icmp slt i32 %14, 5
  br i1 %35, label %41, label %39

36:                                               ; preds = %22
  %37 = icmp sgt i32 %14, 4
  %38 = and i32 %20, 12
  %.not20.i = icmp eq i32 %38, 0
  %or.cond.i = and i1 %37, %.not20.i
  br i1 %or.cond.i, label %39, label %41

39:                                               ; preds = %36, %34, %26
  %40 = call i32 @dissect_iuup(ptr noundef %13, ptr noundef %1, ptr noundef %2, ptr noundef %3)
  call void @llvm.lifetime.end.p0(i64 2, ptr nonnull %6) #9
  br label %44

41:                                               ; preds = %12, %24, %26, %34, %36, %22
  call void @llvm.lifetime.end.p0(i64 2, ptr nonnull %6) #9
  %42 = add nuw nsw i32 %.018, 1
  %exitcond.not = icmp eq i32 %.018, %11
  br i1 %exitcond.not, label %._crit_edge, label %12, !llvm.loop !16

._crit_edge:                                      ; preds = %41, %4
  %43 = call i32 @call_data_dissector(ptr noundef %0, ptr noundef %1, ptr noundef %2)
  br label %44

44:                                               ; preds = %._crit_edge, %39
  %45 = call i32 @tvb_captured_length(ptr noundef %0)
  ret i32 %45
}